; Function Attrs: mustprogress uwtable
define internal fastcc noundef zeroext i1 @"_ZZN32pxrInternal_v0_24__pxrReserved__L19Sdf_WriteVariantSetERKNS_17SdfVariantSetSpecERNS_14Sdf_TextOutputEmENK3$_0clERKNS_9SdfHandleINS_14SdfVariantSpecEEESA_"(ptr noundef nonnull align 8 dereferenceable(8) %0, ptr noundef nonnull align 8 dereferenceable(8) %1) unnamed_addr #3 align 2 personality ptr @__gxx_personality_v0 {
  %3 = alloca %"struct.pxrInternal_v0_24__pxrReserved__::Tf_DiagnosticHelper", align 8
  %4 = alloca %"class.std::__cxx11::basic_string", align 8
  %5 = alloca %"struct.pxrInternal_v0_24__pxrReserved__::Tf_DiagnosticHelper", align 8
  %6 = alloca %"class.std::__cxx11::basic_string", align 8
  %7 = alloca %"class.std::__cxx11::basic_string", align 8
  %8 = alloca %"class.std::__cxx11::basic_string", align 8
  call void @llvm.lifetime.start.p0(i64 48, ptr nonnull %5)
  call void @llvm.lifetime.start.p0(i64 32, ptr nonnull %6)
  %9 = tail call noundef zeroext i1 @_ZNK32pxrInternal_v0_24__pxrReserved__7SdfSpec9IsDormantEv(ptr noundef nonnull align 8 dereferenceable(8) %0)
  br i1 %9, label %10, label %_ZNK32pxrInternal_v0_24__pxrReserved__9SdfHandleINS_14SdfVariantSpecEEptEv.exit

10:                                               ; preds = %2
  store ptr @.str.43, ptr %5, align 8
  %.sroa.2.0..sroa_idx.i = getelementptr inbounds nuw i8, ptr %5, i64 8
  store ptr @__func__._ZN32pxrInternal_v0_24__pxrReserved__10TfIteratorIKNS_15SdfMapEditProxyISt3mapINS_7SdfPathES3_St4lessIS3_ESaISt4pairIKS3_S3_EEENS_31SdfRelocatesMapProxyValuePolicyEEELb0EEptEv, ptr %.sroa.2.0..sroa_idx.i, align 8
  %.sroa.3.0..sroa_idx.i = getelementptr inbounds nuw i8, ptr %5, i64 16
  store i64 79, ptr %.sroa.3.0..sroa_idx.i, align 8
  %.sroa.4.0..sroa_idx.i = getelementptr inbounds nuw i8, ptr %5, i64 24
  store ptr @__PRETTY_FUNCTION__._ZNK32pxrInternal_v0_24__pxrReserved__9SdfHandleINS_14SdfVariantSpecEEptEv, ptr %.sroa.4.0..sroa_idx.i, align 8
  %.sroa.5.0..sroa_idx.i = getelementptr inbounds nuw i8, ptr %5, i64 32
  store i8 0, ptr %.sroa.5.0..sroa_idx.i, align 8
  %11 = getelementptr inbounds nuw i8, ptr %5, i64 40
  store i32 4, ptr %11, align 8
  call void @_ZN32pxrInternal_v0_24__pxrReserved__16ArchGetDemangledB5cxx11EPKc(ptr dead_on_unwind nonnull writable sret(%"class.std::__cxx11::basic_string") align 8 %6, ptr noundef nonnull @_ZTSN32pxrInternal_v0_24__pxrReserved__14SdfVariantSpecE)
  %12 = call noundef ptr @_ZNKSt7__cxx1112basic_stringIcSt11char_traitsIcESaIcEE5c_strEv(ptr noundef nonnull align 8 dereferenceable(32) %6) #20
  invoke void (ptr, ptr, ...) @_ZNK32pxrInternal_v0_24__pxrReserved__19Tf_DiagnosticHelper15IssueFatalErrorEPKcz(ptr noundef nonnull align 8 dereferenceable(44) %5, ptr noundef nonnull @.str.44, ptr noundef %12)
          to label %13 unwind label %14

13:                                               ; preds = %10
  call void @_ZNSt7__cxx1112basic_stringIcSt11char_traitsIcESaIcEED1Ev(ptr noundef nonnull align 8 dereferenceable(32) %6) #20
  unreachable

common.resume:                                    ; preds = %30, %21, %14
  %.sink = phi ptr [ %6, %14 ], [ %7, %21 ], [ %7, %30 ]
  %common.resume.op = phi { ptr, i32 } [ %15, %14 ], [ %22, %21 ], [ %31, %30 ]
  call void @_ZNSt7__cxx1112basic_stringIcSt11char_traitsIcESaIcEED1Ev(ptr noundef nonnull align 8 dereferenceable(32) %.sink) #20
  resume { ptr, i32 } %common.resume.op

14:                                               ; preds = %10
  %15 = landingpad { ptr, i32 }
          cleanup
  br label %common.resume

_ZNK32pxrInternal_v0_24__pxrReserved__9SdfHandleINS_14SdfVariantSpecEEptEv.exit: ; preds = %2
  call void @llvm.lifetime.end.p0(i64 48, ptr nonnull %5)
  call void @llvm.lifetime.end.p0(i64 32, ptr nonnull %6)
  call void @_ZNK32pxrInternal_v0_24__pxrReserved__14SdfVariantSpec7GetNameB5cxx11Ev(ptr dead_on_unwind nonnull writable sret(%"class.std::__cxx11::basic_string") align 8 %7, ptr noundef nonnull align 8 dereferenceable(8) %0)
  call void @llvm.lifetime.start.p0(i64 48, ptr nonnull %3)
  call void @llvm.lifetime.start.p0(i64 32, ptr nonnull %4)
  %16 = invoke noundef zeroext i1 @_ZNK32pxrInternal_v0_24__pxrReserved__7SdfSpec9IsDormantEv(ptr noundef nonnull align 8 dereferenceable(8) %1)
          to label %.noexc unwind label %30

.noexc:                                           ; preds = %_ZNK32pxrInternal_v0_24__pxrReserved__9SdfHandleINS_14SdfVariantSpecEEptEv.exit
  br i1 %16, label %17, label %23

17:                                               ; preds = %.noexc
  store ptr @.str.43, ptr %3, align 8
  %.sroa.2.0..sroa_idx.i4 = getelementptr inbounds nuw i8, ptr %3, i64 8
  store ptr @__func__._ZN32pxrInternal_v0_24__pxrReserved__10TfIteratorIKNS_15SdfMapEditProxyISt3mapINS_7SdfPathES3_St4lessIS3_ESaISt4pairIKS3_S3_EEENS_31SdfRelocatesMapProxyValuePolicyEEELb0EEptEv, ptr %.sroa.2.0..sroa_idx.i4, align 8
  %.sroa.3.0..sroa_idx.i5 = getelementptr inbounds nuw i8, ptr %3, i64 16
  store i64 79, ptr %.sroa.3.0..sroa_idx.i5, align 8
  %.sroa.4.0..sroa_idx.i6 = getelementptr inbounds nuw i8, ptr %3, i64 24
  store ptr @__PRETTY_FUNCTION__._ZNK32pxrInternal_v0_24__pxrReserved__9SdfHandleINS_14SdfVariantSpecEEptEv, ptr %.sroa.4.0..sroa_idx.i6, align 8
  %.sroa.5.0..sroa_idx.i7 = getelementptr inbounds nuw i8, ptr %3, i64 32
  store i8 0, ptr %.sroa.5.0..sroa_idx.i7, align 8
  %18 = getelementptr inbounds nuw i8, ptr %3, i64 40
  store i32 4, ptr %18, align 8
  invoke void @_ZN32pxrInternal_v0_24__pxrReserved__16ArchGetDemangledB5cxx11EPKc(ptr dead_on_unwind nonnull writable sret(%"class.std::__cxx11::basic_string") align 8 %4, ptr noundef nonnull @_ZTSN32pxrInternal_v0_24__pxrReserved__14SdfVariantSpecE)
          to label %.noexc8 unwind label %30

.noexc8:                                          ; preds = %17
  %19 = call noundef ptr @_ZNKSt7__cxx1112basic_stringIcSt11char_traitsIcESaIcEE5c_strEv(ptr noundef nonnull align 8 dereferenceable(32) %4) #20
  invoke void (ptr, ptr, ...) @_ZNK32pxrInternal_v0_24__pxrReserved__19Tf_DiagnosticHelper15IssueFatalErrorEPKcz(ptr noundef nonnull align 8 dereferenceable(44) %3, ptr noundef nonnull @.str.44, ptr noundef %19)
          to label %20 unwind label %21

20:                                               ; preds = %.noexc8
  call void @_ZNSt7__cxx1112basic_stringIcSt11char_traitsIcESaIcEED1Ev(ptr noundef nonnull align 8 dereferenceable(32) %4) #20
  unreachable

21:                                               ; preds = %.noexc8
  %22 = landingpad { ptr, i32 }
          cleanup
  call void @_ZNSt7__cxx1112basic_stringIcSt11char_traitsIcESaIcEED1Ev(ptr noundef nonnull align 8 dereferenceable(32) %4) #20
  br label %common.resume

23:                                               ; preds = %.noexc
  call void @llvm.lifetime.end.p0(i64 48, ptr nonnull %3)
  call void @llvm.lifetime.end.p0(i64 32, ptr nonnull %4)
  invoke void @_ZNK32pxrInternal_v0_24__pxrReserved__14SdfVariantSpec7GetNameB5cxx11Ev(ptr dead_on_unwind nonnull writable sret(%"class.std::__cxx11::basic_string") align 8 %8, ptr noundef nonnull align 8 dereferenceable(8) %1)
          to label %24 unwind label %30

24:                                               ; preds = %23
  %25 = invoke noundef i32 @_ZNKSt7__cxx1112basic_stringIcSt11char_traitsIcESaIcEE7compareERKS4_(ptr noundef nonnull align 8 dereferenceable(32) %7, ptr noundef nonnull align 8 dereferenceable(32) %8)
          to label %_ZStltIcSt11char_traitsIcESaIcEEbRKNSt7__cxx1112basic_stringIT_T0_T1_EESA_.exit unwind label %26

26:                                               ; preds = %24
  %27 = landingpad { ptr, i32 }
          catch ptr null
  %28 = extractvalue { ptr, i32 } %27, 0
  call void @__clang_call_terminate(ptr %28) #24
  unreachable

_ZStltIcSt11char_traitsIcESaIcEEbRKNSt7__cxx1112basic_stringIT_T0_T1_EESA_.exit: ; preds = %24
  %29 = icmp slt i32 %25, 0
  call void @_ZNSt7__cxx1112basic_stringIcSt11char_traitsIcESaIcEED1Ev(ptr noundef nonnull align 8 dereferenceable(32) %8) #20
  call void @_ZNSt7__cxx1112basic_stringIcSt11char_traitsIcESaIcEED1Ev(ptr noundef nonnull align 8 dereferenceable(32) %7) #20
  ret i1 %29

30:                                               ; preds = %17, %_ZNK32pxrInternal_v0_24__pxrReserved__9SdfHandleINS_14SdfVariantSpecEEptEv.exit, %23
  %31 = landingpad { ptr, i32 }
          cleanup
  br label %common.resume
}